	.file	"q7.c"
	.text
	.globl	proc
	.type	proc, @function
proc:
.LFB6:
	.cfi_startproc
	endbr64
	pushq	%rbp
	.cfi_def_cfa_offset 16
	.cfi_offset 6, -16
	movq	%rsp, %rbp
	.cfi_def_cfa_register 6
	movq	%rdi, -24(%rbp)
	movl	$0, -4(%rbp)
	movl	$0, -8(%rbp)
	jmp	.L2
.L3:
	movl	-8(%rbp), %eax
	cltq
	leaq	0(,%rax,4), %rdx
	movq	-24(%rbp), %rax
	addq	%rdx, %rax
	movl	(%rax), %eax
	addl	%eax, -4(%rbp)
	addl	$1, -8(%rbp)
.L2:
	cmpl	$99999, -8(%rbp)
	jle	.L3
	movl	-4(%rbp), %eax
	popq	%rbp
	.cfi_def_cfa 7, 8
	ret
	.cfi_endproc
.LFE6:
	.size	proc, .-proc
	.section	.rodata
.LC0:
	.string	"Memory allocation failed\n"
.LC2:
	.string	"Result: %d\n"
.LC3:
	.string	"Time taken: %f seconds\n"
	.text
	.globl	main
	.type	main, @function
main:
.LFB7:
	.cfi_startproc
	endbr64
	pushq	%rbp
	.cfi_def_cfa_offset 16
	.cfi_offset 6, -16
	movq	%rsp, %rbp
	.cfi_def_cfa_register 6
	subq	$48, %rsp
	movl	$400000, %edi
	call	malloc@PLT
	movq	%rax, -32(%rbp)
	cmpq	$0, -32(%rbp)
	jne	.L6
	movq	stderr(%rip), %rax
	movq	%rax, %rcx
	movl	$25, %edx
	movl	$1, %esi
	leaq	.LC0(%rip), %rax
	movq	%rax, %rdi
	call	fwrite@PLT
	movl	$1, %eax
	jmp	.L7
.L6:
	movl	$0, -40(%rbp)
	jmp	.L8
.L9:
	movl	-40(%rbp), %eax
	cltq
	leaq	0(,%rax,4), %rdx
	movq	-32(%rbp), %rax
	addq	%rdx, %rax
	movl	-40(%rbp), %edx
	addl	$1, %edx
	movl	%edx, (%rax)
	addl	$1, -40(%rbp)
.L8:
	cmpl	$99999, -40(%rbp)
	jle	.L9
	call	clock@PLT
	movq	%rax, -24(%rbp)
	movq	-32(%rbp), %rax
	movq	%rax, %rdi
	call	proc
	movl	%eax, -36(%rbp)
	call	clock@PLT
	movq	%rax, -16(%rbp)
	movq	-16(%rbp), %rax
	subq	-24(%rbp), %rax
	pxor	%xmm0, %xmm0
	cvtsi2sdq	%rax, %xmm0
	movsd	.LC1(%rip), %xmm1
	divsd	%xmm1, %xmm0
	movsd	%xmm0, -8(%rbp)
	movl	-36(%rbp), %eax
	movl	%eax, %esi
	leaq	.LC2(%rip), %rax
	movq	%rax, %rdi
	movl	$0, %eax
	call	printf@PLT
	movq	-8(%rbp), %rax
	movq	%rax, %xmm0
	leaq	.LC3(%rip), %rax
	movq	%rax, %rdi
	movl	$1, %eax
	call	printf@PLT
	movq	-32(%rbp), %rax
	movq	%rax, %rdi
	call	free@PLT
	movl	$0, %eax
.L7:
	leave
	.cfi_def_cfa 7, 8
	ret
	.cfi_endproc
.LFE7:
	.size	main, .-main
	.section	.rodata
	.align 8
.LC1:
	.long	0
	.long	1093567616
	.ident	"GCC: (Ubuntu 13.3.0-6ubuntu2~24.04.1) 13.3.0"
	.section	.note.GNU-stack,"",@progbits
	.section	.note.gnu.property,"a"
	.align 8
	.long	1f - 0f
	.long	4f - 1f
	.long	5
0:
	.string	"GNU"
1:
	.align 8
	.long	0xc0000002
	.long	3f - 2f
2:
	.long	0x3
3:
	.align 8
4:
